; Function Attrs: nounwind uwtable
define internal void @start_pass_lossless(ptr noundef %0) #0 {
  %2 = getelementptr inbounds nuw i8, ptr %0, i64 488
  %3 = load ptr, ptr %2, align 8, !tbaa !34
  %4 = getelementptr inbounds nuw i8, ptr %0, i64 424
  %5 = load i32, ptr %4, align 8, !tbaa !38
  %.not = icmp eq i32 %5, 0
  %spec.select = select i1 %.not, ptr @noscale, ptr @simple_downscale
  %6 = getelementptr inbounds nuw i8, ptr %3, i64 144
  store ptr %spec.select, ptr %6, align 8, !tbaa !39
  %7 = getelementptr inbounds nuw i8, ptr %0, i64 280
  %8 = load i32, ptr %7, align 8, !tbaa !40
  %9 = getelementptr inbounds nuw i8, ptr %0, i64 360
  %10 = load i32, ptr %9, align 8, !tbaa !41
  %11 = urem i32 %8, %10
  %.not17 = icmp eq i32 %11, 0
  br i1 %.not17, label %21, label %12

12:                                               ; preds = %1
  %13 = load ptr, ptr %0, align 8, !tbaa !24
  %14 = getelementptr inbounds nuw i8, ptr %13, i64 40
  store i32 129, ptr %14, align 8, !tbaa !25
  %15 = getelementptr inbounds nuw i8, ptr %13, i64 44
  store i32 %8, ptr %15, align 4, !tbaa !29
  %16 = load i32, ptr %9, align 8, !tbaa !41
  %17 = load ptr, ptr %0, align 8, !tbaa !24
  %18 = getelementptr inbounds nuw i8, ptr %17, i64 48
  store i32 %16, ptr %18, align 4, !tbaa !29
  %19 = load ptr, ptr %0, align 8, !tbaa !24
  %20 = load ptr, ptr %19, align 8, !tbaa !30
  tail call void %20(ptr noundef nonnull %0) #5
  br label %21

21:                                               ; preds = %12, %1
  %22 = getelementptr inbounds nuw i8, ptr %0, i64 76
  %23 = load i32, ptr %22, align 4, !tbaa !42
  %24 = icmp sgt i32 %23, 0
  br i1 %24, label %.lr.ph, label %._crit_edge

.lr.ph:                                           ; preds = %21, %.lr.ph
  %indvars.iv = phi i64 [ %indvars.iv.next, %.lr.ph ], [ 0, %21 ]
  %25 = load ptr, ptr %2, align 8, !tbaa !34
  %26 = load i32, ptr %7, align 8, !tbaa !40
  %27 = load i32, ptr %9, align 8, !tbaa !41
  %28 = udiv i32 %26, %27
  %29 = getelementptr inbounds nuw i8, ptr %25, i64 104
  %30 = getelementptr inbounds nuw [10 x i32], ptr %29, i64 0, i64 %indvars.iv
  store i32 %28, ptr %30, align 4, !tbaa !43
  %31 = getelementptr inbounds nuw i8, ptr %25, i64 24
  %32 = getelementptr inbounds nuw [10 x ptr], ptr %31, i64 0, i64 %indvars.iv
  store ptr @jpeg_difference_first_row, ptr %32, align 8, !tbaa !44
  %indvars.iv.next = add nuw nsw i64 %indvars.iv, 1
  %33 = load i32, ptr %22, align 4, !tbaa !42
  %34 = sext i32 %33 to i64
  %35 = icmp slt i64 %indvars.iv.next, %34
  br i1 %35, label %.lr.ph, label %._crit_edge, !llvm.loop !45

._crit_edge:                                      ; preds = %.lr.ph, %21
  ret void
}